(lp1
cnumpy.core.multiarray
scalar
p2
(cnumpy
dtype
p3
(S'f8'
I0
I1
tRp4
(I3
S'<'
NNNI-1
I-1
I0
tbS"y\x12'%\x04f\xe9?"
tRp5
ag2
(g4
S'\xc9\x089\xdf<!\xe9?'
tRp6
ag2
(g4
S'\x05\x06\xf58\x96\r\xe9?'
tRp7
a.