ccopy_reg
_reconstructor
p1
(ctheano.tensor.var
TensorVariable
p2
c__builtin__
object
p3
NtRp4
(dp5
S'auto_name'
p6
S'auto_16579'
p7
sS'index'
p8
NsS'tag'
p9
(itheano.gof.utils
scratchpad
p10
(dp11
S'trace'
p12
(lp13
(lp14
(S'<ipython-input-27-eaec0a43d642>'
p15
I1
S'<module>'
p16
Vdebugfile('/Users/Ambroise/Desktop/Projet Recherche ENS - LSCP - EHESS/Theano/Theano_MLP3.py', wdir='/Users/Ambroise/Desktop/Projet Recherche ENS - LSCP - EHESS/Theano')
tp17
a(S'/Users/Ambroise/anaconda/lib/python2.7/site-packages/spyderlib/widgets/externalshell/sitecustomize.py'
p18
I719
S'debugfile'
p19
S'debugger.run("runfile(%r, args=%r, wdir=%r)" % (filename, args, wdir))'
tp20
a(S'/Users/Ambroise/anaconda/lib/python2.7/bdb.py'
p21
I400
S'run'
p22
S'exec cmd in globals, locals'
tp23
a(S'<string>'
p24
I1
g16
Ntp25
a(S'/Users/Ambroise/anaconda/lib/python2.7/site-packages/spyderlib/widgets/externalshell/sitecustomize.py'
p26
I699
S'runfile'
p27
S'execfile(filename, namespace)'
tp28
a(S'/Users/Ambroise/anaconda/lib/python2.7/site-packages/spyderlib/widgets/externalshell/sitecustomize.py'
p29
I81
S'execfile'
p30
S'builtins.execfile(filename, *where)'
tp31
a(S'/Users/Ambroise/Desktop/Projet Recherche ENS - LSCP - EHESS/Theano/Theano_MLP3.py'
p32
I38
g16
S'test_mlp(learning_rate=0.05,n_epochs=5)'
tp33
a(S'/Users/Ambroise/Desktop/Projet Recherche ENS - LSCP - EHESS/Theano/Theano_MLP1.py'
p34
I463
S'test_mlp'
p35
S"x = T.matrix('x')  # the data is presented as rasterized images"
tp36
aasbsS'name'
p37
S'x'
sS'owner'
p38
NsS'type'
p39
g1
(ctheano.tensor.type
TensorType
p40
g3
NtRp41
(dp42
S'broadcastable'
p43
(I00
I00
tp44
sS'dtype'
p45
S'float64'
p46
sS'numpy_dtype'
p47
cnumpy
dtype
p48
(S'f8'
I0
I1
tRp49
(I3
S'<'
NNNI-1
I-1
I0
tbsS'sparse_grad'
p50
I00
sg37
Nsbsb.